target datalayout = "e-m:e-p270:32:32-p271:32:32-p272:64:64-i64:64-i128:128-f80:128-n8:16:32:64-S128"
target triple = "x86_64-pc-linux-gnu"

; Function Attrs: inlinehint nounwind sspstrong willreturn memory(none) uwtable
define internal zeroext i1 @RB_TEST(i64 noundef %0) #6 {
  %2 = alloca i64, align 8
  store i64 %0, ptr %2, align 8, !tbaa !14
  %3 = load i64, ptr %2, align 8, !tbaa !14
  %4 = and i64 %3, -5
  %5 = icmp ne i64 %4, 0
  ret i1 %5
}

; Function Attrs: nounwind sspstrong uwtable
define internal i64 @enum_yield(i32 noundef %0, i64 noundef %1) #0 {
  %3 = alloca i64, align 8
  %4 = alloca i32, align 4
  %5 = alloca i64, align 8
  store i32 %0, ptr %4, align 4, !tbaa !7
  store i64 %1, ptr %5, align 8, !tbaa !14
  %6 = load i32, ptr %4, align 4, !tbaa !7
  %7 = icmp sgt i32 %6, 1
  br i1 %7, label %8, label %11

8:                                                ; preds = %2
  %9 = load i64, ptr %5, align 8, !tbaa !14
  %10 = call i64 @rb_yield_force_blockarg(i64 noundef %9)
  store i64 %10, ptr %3, align 8
  br label %19

11:                                               ; preds = %2
  %12 = load i32, ptr %4, align 4, !tbaa !7
  %13 = icmp eq i32 %12, 1
  br i1 %13, label %14, label %17

14:                                               ; preds = %11
  %15 = load i64, ptr %5, align 8, !tbaa !14
  %16 = call i64 @rb_yield(i64 noundef %15)
  store i64 %16, ptr %3, align 8
  br label %19

17:                                               ; preds = %11
  %18 = call i64 @rb_yield_values2(i32 noundef 0, ptr noundef null)
  store i64 %18, ptr %3, align 8
  br label %19

19:                                               ; preds = %17, %14, %8
  %20 = load i64, ptr %3, align 8
  ret i64 %20
}

; Function Attrs: nounwind sspstrong uwtable
define dso_local i64 @rb_enum_values_pack(i32 noundef %0, ptr noundef %1) #0 {
  %3 = alloca i64, align 8
  %4 = alloca i32, align 4
  %5 = alloca ptr, align 8
  store i32 %0, ptr %4, align 4, !tbaa !7
  store ptr %1, ptr %5, align 8, !tbaa !11
  %6 = load i32, ptr %4, align 4, !tbaa !7
  %7 = icmp eq i32 %6, 0
  br i1 %7, label %8, label %9

8:                                                ; preds = %2
  store i64 4, ptr %3, align 8
  br label %21

9:                                                ; preds = %2
  %10 = load i32, ptr %4, align 4, !tbaa !7
  %11 = icmp eq i32 %10, 1
  br i1 %11, label %12, label %16

12:                                               ; preds = %9
  %13 = load ptr, ptr %5, align 8, !tbaa !11
  %14 = getelementptr i64, ptr %13, i64 0
  %15 = load i64, ptr %14, align 8, !tbaa !14
  store i64 %15, ptr %3, align 8
  br label %21

16:                                               ; preds = %9
  %17 = load i32, ptr %4, align 4, !tbaa !7
  %18 = sext i32 %17 to i64
  %19 = load ptr, ptr %5, align 8, !tbaa !11
  %20 = call i64 @rb_ary_new_from_values(i64 noundef %18, ptr noundef %19)
  store i64 %20, ptr %3, align 8
  br label %21

21:                                               ; preds = %16, %12, %8
  %22 = load i64, ptr %3, align 8
  ret i64 %22
}

; Function Attrs: nounwind sspstrong uwtable
define internal i64 @find_i(i64 noundef %0, i64 noundef %1, i32 noundef %2, ptr noundef %3, i64 noundef %4) #0 {
  %6 = alloca i64, align 8
  %7 = alloca i64, align 8
  %8 = alloca i32, align 4
  %9 = alloca ptr, align 8
  %10 = alloca i64, align 8
  store i64 %0, ptr %6, align 8, !tbaa !14
  store i64 %1, ptr %7, align 8, !tbaa !14
  store i32 %2, ptr %8, align 4, !tbaa !7
  store ptr %3, ptr %9, align 8, !tbaa !11
  store i64 %4, ptr %10, align 8, !tbaa !14
  br label %11

11:                                               ; preds = %5
  %12 = load i32, ptr %8, align 4, !tbaa !7
  %13 = load ptr, ptr %9, align 8, !tbaa !11
  %14 = call i64 @rb_enum_values_pack(i32 noundef %12, ptr noundef %13)
  store i64 %14, ptr %6, align 8, !tbaa !14
  br label %15

15:                                               ; preds = %11
  %16 = load i32, ptr %8, align 4, !tbaa !7
  %17 = load i64, ptr %6, align 8, !tbaa !14
  %18 = call i64 @enum_yield(i32 noundef %16, i64 noundef %17)
  %19 = call zeroext i1 @RB_TEST(i64 noundef %18) #25
  br i1 %19, label %20, label %23

20:                                               ; preds = %15
  %21 = load i64, ptr %6, align 8, !tbaa !14
  %22 = load i64, ptr %7, align 8, !tbaa !14
  call void @found(i64 noundef %21, i64 noundef %22) #23
  unreachable

23:                                               ; preds = %15
  ret i64 4
}